; Function Attrs: nounwind uwtable
define ptr @Cudd_UnderApprox(ptr noundef initializes((448, 452)) %0, ptr noundef %1, i32 noundef %2, i32 noundef %3, i32 noundef %4, double noundef %5) local_unnamed_addr #0 {
  %7 = getelementptr inbounds nuw i8, ptr %0, i64 448
  br label %8

8:                                                ; preds = %8, %6
  store i32 0, ptr %7, align 8, !tbaa !3
  %9 = tail call ptr @cuddUnderApprox(ptr noundef %0, ptr noundef %1, i32 noundef %2, i32 noundef %3, i32 noundef %4, double noundef %5)
  %10 = load i32, ptr %7, align 8, !tbaa !3
  %11 = icmp eq i32 %10, 1
  br i1 %11, label %8, label %12, !llvm.loop !24

12:                                               ; preds = %8
  ret ptr %9
}